; Function Attrs: mustprogress nofree norecurse nosync nounwind willreturn memory(argmem: write) uwtable
define noundef zeroext i1 @_ZN13duckdb_yyjson32yyjson_mut_doc_set_str_pool_sizeEPNS_14yyjson_mut_docEm(ptr noundef writeonly captures(address_is_null) %0, i64 noundef %1) local_unnamed_addr #11 {
  %3 = icmp ne ptr %0, null
  %4 = add i64 %1, -1
  %5 = icmp ult i64 %4, -17
  %or.cond9.not = and i1 %3, %5
  br i1 %or.cond9.not, label %6, label %9

6:                                                ; preds = %2
  %7 = add nuw i64 %1, 16
  %8 = getelementptr inbounds nuw i8, ptr %0, i64 56
  store i64 %7, ptr %8, align 8, !tbaa !62
  br label %9

9:                                                ; preds = %2, %6
  ret i1 %or.cond9.not
}